target datalayout = "e-m:e-p270:32:32-p271:32:32-p272:64:64-i64:64-i128:128-f80:128-n8:16:32:64-S128"
target triple = "x86_64-pc-linux-gnu"

%struct.dasm_State = type { i64, ptr, ptr, i64, ptr, i64, ptr, ptr, i64, i32, i32, [1 x %struct.dasm_Section] }
%struct.dasm_Section = type { ptr, ptr, i64, i32, i32, i32 }

; Function Attrs: nounwind uwtable
define hidden void @dasm_free(ptr noundef %0) #0 {
  %2 = alloca ptr, align 8
  %3 = alloca ptr, align 8
  %4 = alloca i32, align 4
  store ptr %0, ptr %2, align 8
  %5 = load ptr, ptr %2, align 8
  %6 = load ptr, ptr %5, align 8
  store ptr %6, ptr %3, align 8
  store i32 0, ptr %4, align 4
  br label %7

7:                                                ; preds = %31, %1
  %8 = load i32, ptr %4, align 4
  %9 = load ptr, ptr %3, align 8
  %10 = getelementptr inbounds %struct.dasm_State, ptr %9, i32 0, i32 9
  %11 = load i32, ptr %10, align 8
  %12 = icmp slt i32 %8, %11
  br i1 %12, label %13, label %34

13:                                               ; preds = %7
  %14 = load ptr, ptr %3, align 8
  %15 = getelementptr inbounds %struct.dasm_State, ptr %14, i32 0, i32 11
  %16 = load i32, ptr %4, align 4
  %17 = sext i32 %16 to i64
  %18 = getelementptr inbounds [1 x %struct.dasm_Section], ptr %15, i64 0, i64 %17
  %19 = getelementptr inbounds %struct.dasm_Section, ptr %18, i32 0, i32 1
  %20 = load ptr, ptr %19, align 8
  %21 = icmp ne ptr %20, null
  br i1 %21, label %22, label %30

22:                                               ; preds = %13
  %23 = load ptr, ptr %3, align 8
  %24 = getelementptr inbounds %struct.dasm_State, ptr %23, i32 0, i32 11
  %25 = load i32, ptr %4, align 4
  %26 = sext i32 %25 to i64
  %27 = getelementptr inbounds [1 x %struct.dasm_Section], ptr %24, i64 0, i64 %26
  %28 = getelementptr inbounds %struct.dasm_Section, ptr %27, i32 0, i32 1
  %29 = load ptr, ptr %28, align 8
  call void @_efree(ptr noundef %29)
  br label %30

30:                                               ; preds = %22, %13
  br label %31

31:                                               ; preds = %30
  %32 = load i32, ptr %4, align 4
  %33 = add nsw i32 %32, 1
  store i32 %33, ptr %4, align 4
  br label %7

34:                                               ; preds = %7
  %35 = load ptr, ptr %3, align 8
  %36 = getelementptr inbounds %struct.dasm_State, ptr %35, i32 0, i32 4
  %37 = load ptr, ptr %36, align 8
  %38 = icmp ne ptr %37, null
  br i1 %38, label %39, label %43

39:                                               ; preds = %34
  %40 = load ptr, ptr %3, align 8
  %41 = getelementptr inbounds %struct.dasm_State, ptr %40, i32 0, i32 4
  %42 = load ptr, ptr %41, align 8
  call void @_efree(ptr noundef %42)
  br label %43

43:                                               ; preds = %39, %34
  %44 = load ptr, ptr %3, align 8
  %45 = getelementptr inbounds %struct.dasm_State, ptr %44, i32 0, i32 2
  %46 = load ptr, ptr %45, align 8
  %47 = icmp ne ptr %46, null
  br i1 %47, label %48, label %52

48:                                               ; preds = %43
  %49 = load ptr, ptr %3, align 8
  %50 = getelementptr inbounds %struct.dasm_State, ptr %49, i32 0, i32 2
  %51 = load ptr, ptr %50, align 8
  call void @_efree(ptr noundef %51)
  br label %52

52:                                               ; preds = %48, %43
  %53 = load ptr, ptr %3, align 8
  call void @_efree(ptr noundef %53)
  ret void
}