; Function Attrs: nounwind uwtable
define hidden void @dasm_free(ptr nocapture noundef readonly %0) local_unnamed_addr #1 {
  %2 = load ptr, ptr %0, align 8
  %3 = getelementptr inbounds i8, ptr %2, i64 72
  %4 = load i32, ptr %3, align 8
  %5 = icmp sgt i32 %4, 0
  br i1 %5, label %.lr.ph, label %._crit_edge

.lr.ph:                                           ; preds = %1
  %6 = getelementptr inbounds i8, ptr %2, i64 80
  br label %7

7:                                                ; preds = %.lr.ph, %12
  %8 = phi i32 [ %4, %.lr.ph ], [ %13, %12 ]
  %indvars.iv = phi i64 [ 0, %.lr.ph ], [ %indvars.iv.next, %12 ]
  %9 = getelementptr inbounds [1 x %struct.dasm_Section], ptr %6, i64 0, i64 %indvars.iv, i32 1
  %10 = load ptr, ptr %9, align 8
  %.not16 = icmp eq ptr %10, null
  br i1 %.not16, label %12, label %11

11:                                               ; preds = %7
  tail call void @_efree(ptr noundef nonnull %10) #22
  %.pre = load i32, ptr %3, align 8
  br label %12

12:                                               ; preds = %7, %11
  %13 = phi i32 [ %8, %7 ], [ %.pre, %11 ]
  %indvars.iv.next = add nuw nsw i64 %indvars.iv, 1
  %14 = sext i32 %13 to i64
  %15 = icmp slt i64 %indvars.iv.next, %14
  br i1 %15, label %7, label %._crit_edge

._crit_edge:                                      ; preds = %12, %1
  %16 = getelementptr inbounds i8, ptr %2, i64 32
  %17 = load ptr, ptr %16, align 8
  %.not = icmp eq ptr %17, null
  br i1 %.not, label %19, label %18

18:                                               ; preds = %._crit_edge
  tail call void @_efree(ptr noundef nonnull %17) #22
  br label %19

19:                                               ; preds = %18, %._crit_edge
  %20 = getelementptr inbounds i8, ptr %2, i64 16
  %21 = load ptr, ptr %20, align 8
  %.not15 = icmp eq ptr %21, null
  br i1 %.not15, label %23, label %22

22:                                               ; preds = %19
  tail call void @_efree(ptr noundef nonnull %21) #22
  br label %23

23:                                               ; preds = %22, %19
  tail call void @_efree(ptr noundef nonnull %2) #22
  ret void
}